; ModuleID = 'bench/llvm/original/Tool.cpp.ll'
source_filename = "bench/llvm/original/Tool.cpp.ll"
target datalayout = "e-m:e-p270:32:32-p271:32:32-p272:64:64-i64:64-i128:128-f80:128-n8:16:32:64-S128"
target triple = "x86_64-pc-linux-gnu"

$_ZNK5clang6driver4Tool22hasIntegratedAssemblerEv = comdat any

$_ZNK5clang6driver4Tool20hasIntegratedBackendEv = comdat any

$_ZNK5clang6driver4Tool9canEmitIREv = comdat any

$_ZNK5clang6driver4Tool9isLinkJobEv = comdat any

$_ZNK5clang6driver4Tool13isDsymutilJobEv = comdat any

$_ZNK5clang6driver4Tool18hasGoodDiagnosticsEv = comdat any

@_ZN4llvm24DisableABIBreakingChecksE = external global i32, align 4
@_ZN4llvm30VerifyDisableABIBreakingChecksE = weak hidden local_unnamed_addr global ptr @_ZN4llvm24DisableABIBreakingChecksE, align 8
@_ZTVN5clang6driver4ToolE = unnamed_addr constant { [13 x ptr] } { [13 x ptr] [ptr null, ptr null, ptr @_ZN5clang6driver4ToolD1Ev, ptr @_ZN5clang6driver4ToolD0Ev, ptr @_ZNK5clang6driver4Tool22hasIntegratedAssemblerEv, ptr @_ZNK5clang6driver4Tool20hasIntegratedBackendEv, ptr @_ZNK5clang6driver4Tool9canEmitIREv, ptr @__cxa_pure_virtual, ptr @_ZNK5clang6driver4Tool9isLinkJobEv, ptr @_ZNK5clang6driver4Tool13isDsymutilJobEv, ptr @_ZNK5clang6driver4Tool18hasGoodDiagnosticsEv, ptr @__cxa_pure_virtual, ptr @_ZNK5clang6driver4Tool27ConstructJobMultipleOutputsERNS0_11CompilationERKNS0_9JobActionERKN4llvm11SmallVectorINS0_9InputInfoELj4EEESC_RKNS7_3opt7ArgListEPKc] }, align 8

@_ZN5clang6driver4ToolD1Ev = unnamed_addr alias void (ptr), ptr @_ZN5clang6driver4ToolD2Ev

; Function Attrs: mustprogress nofree norecurse nosync nounwind willreturn memory(argmem: write) uwtable
define dso_local void @_ZN5clang6driver4ToolC2EPKcS3_RKNS0_9ToolChainE(ptr nocapture noundef nonnull writeonly align 8 dereferenceable(32) %0, ptr noundef %1, ptr noundef %2, ptr noundef nonnull align 1 %3) unnamed_addr #0 align 2 {
  store ptr getelementptr inbounds inrange(-16, 88) (i8, ptr @_ZTVN5clang6driver4ToolE, i64 16), ptr %0, align 8
  %5 = getelementptr inbounds nuw i8, ptr %0, i64 8
  store ptr %1, ptr %5, align 8
  %6 = getelementptr inbounds nuw i8, ptr %0, i64 16
  store ptr %2, ptr %6, align 8
  %7 = getelementptr inbounds nuw i8, ptr %0, i64 24
  store ptr %3, ptr %7, align 8
  ret void
}

; Function Attrs: mustprogress nofree norecurse nosync nounwind willreturn memory(none) uwtable
define dso_local void @_ZN5clang6driver4ToolD2Ev(ptr nocapture nonnull readnone align 8 %0) unnamed_addr #1 align 2 {
  ret void
}

; Function Attrs: cold mustprogress noreturn nounwind memory(inaccessiblemem: write) uwtable
define dso_local void @_ZN5clang6driver4ToolD0Ev(ptr nocapture nonnull readnone align 8 %0) unnamed_addr #2 align 2 {
  tail call void @llvm.trap() #5
  unreachable
}

; Function Attrs: cold noreturn nounwind memory(inaccessiblemem: write)
declare void @llvm.trap() #3

; Function Attrs: mustprogress nounwind uwtable
define dso_local void @_ZNK5clang6driver4Tool27ConstructJobMultipleOutputsERNS0_11CompilationERKNS0_9JobActionERKN4llvm11SmallVectorINS0_9InputInfoELj4EEESC_RKNS7_3opt7ArgListEPKc(ptr noundef nonnull align 8 dereferenceable(32) %0, ptr noundef nonnull align 1 %1, ptr noundef nonnull align 8 dereferenceable(88) %2, ptr nocapture noundef nonnull readonly align 8 dereferenceable(176) %3, ptr noundef nonnull align 8 dereferenceable(176) %4, ptr noundef nonnull align 8 dereferenceable(176) %5, ptr noundef %6) unnamed_addr #4 align 2 {
  %8 = load ptr, ptr %3, align 8
  %9 = load ptr, ptr %0, align 8
  %10 = getelementptr inbounds i8, ptr %9, i64 72
  %11 = load ptr, ptr %10, align 8
  tail call void %11(ptr noundef nonnull align 8 dereferenceable(32) %0, ptr noundef nonnull align 1 %1, ptr noundef nonnull align 8 dereferenceable(88) %2, ptr noundef nonnull align 8 dereferenceable(40) %8, ptr noundef nonnull align 8 dereferenceable(176) %4, ptr noundef nonnull align 8 dereferenceable(176) %5, ptr noundef %6) #6
  ret void
}

; Function Attrs: mustprogress nounwind uwtable
define linkonce_odr hidden noundef zeroext i1 @_ZNK5clang6driver4Tool22hasIntegratedAssemblerEv(ptr noundef nonnull align 8 dereferenceable(32) %0) unnamed_addr #4 comdat align 2 {
  ret i1 false
}

; Function Attrs: mustprogress nounwind uwtable
define linkonce_odr hidden noundef zeroext i1 @_ZNK5clang6driver4Tool20hasIntegratedBackendEv(ptr noundef nonnull align 8 dereferenceable(32) %0) unnamed_addr #4 comdat align 2 {
  ret i1 true
}

; Function Attrs: mustprogress nounwind uwtable
define linkonce_odr hidden noundef zeroext i1 @_ZNK5clang6driver4Tool9canEmitIREv(ptr noundef nonnull align 8 dereferenceable(32) %0) unnamed_addr #4 comdat align 2 {
  ret i1 false
}

declare void @__cxa_pure_virtual() unnamed_addr

; Function Attrs: mustprogress nounwind uwtable
define linkonce_odr hidden noundef zeroext i1 @_ZNK5clang6driver4Tool9isLinkJobEv(ptr noundef nonnull align 8 dereferenceable(32) %0) unnamed_addr #4 comdat align 2 {
  ret i1 false
}

; Function Attrs: mustprogress nounwind uwtable
define linkonce_odr hidden noundef zeroext i1 @_ZNK5clang6driver4Tool13isDsymutilJobEv(ptr noundef nonnull align 8 dereferenceable(32) %0) unnamed_addr #4 comdat align 2 {
  ret i1 false
}

; Function Attrs: mustprogress nounwind uwtable
define linkonce_odr hidden noundef zeroext i1 @_ZNK5clang6driver4Tool18hasGoodDiagnosticsEv(ptr noundef nonnull align 8 dereferenceable(32) %0) unnamed_addr #4 comdat align 2 {
  ret i1 false
}


!llvm.module.flags = !{!0, !1, !2, !3}

!0 = !{i32 1, !"wchar_size", i32 4}
!1 = !{i32 8, !"PIC Level", i32 2}
!2 = !{i32 7, !"uwtable", i32 2}
!3 = !{i32 7, !"frame-pointer", i32 2}
